(dp0
S'isShellCmd'
p1
I00
sS'cmd'
p2
(lp3
S'/usr/local/share/strelka-2.9.10-1/libexec/mergeChromDepth.py'
p4
aS'--out'
p5
aS'/storage/nf-core/exec/nextflow_workflow_tracer/work/87/d598619b414bad37c164a84cbe1fc0/strelka/workspace/chromDepth.tsv'
p6
aS'--in'
p7
aS'/storage/nf-core/exec/nextflow_workflow_tracer/work/87/d598619b414bad37c164a84cbe1fc0/strelka/workspace/chromDepth.tsv.tmpdir/chromDepth.tsv.000.txt'
p8
asS'errFile'
p9
S'/storage/nf-core/exec/nextflow_workflow_tracer/work/87/d598619b414bad37c164a84cbe1fc0/strelka/workspace/pyflow.data/logs/pyflow_tasks_stderr_log.txt'
p10
sS'outFile'
p11
S'/storage/nf-core/exec/nextflow_workflow_tracer/work/87/d598619b414bad37c164a84cbe1fc0/strelka/workspace/pyflow.data/logs/pyflow_tasks_stdout_log.txt'
p12
sS'env'
p13
NsS'nCores'
p14
I1
sS'cwd'
p15
S''
p16
s.