(dp0
S'isShellCmd'
p1
I00
sS'cmd'
p2
(lp3
S'mv'
p4
aS'/storage/nf-core/exec/nextflow_workflow_tracer/work/85/e0c3e28f93e292bf18b1e3356c114f/strelka/workspace/genomeSegment.tmpdir/segment.chromId_000_chr22_0000.genome.S1.vcf.gz'
p5
aS'/storage/nf-core/exec/nextflow_workflow_tracer/work/85/e0c3e28f93e292bf18b1e3356c114f/strelka/results/variants/genome.S1.vcf.gz'
p6
asS'errFile'
p7
S'/storage/nf-core/exec/nextflow_workflow_tracer/work/85/e0c3e28f93e292bf18b1e3356c114f/strelka/workspace/pyflow.data/logs/pyflow_tasks_stderr_log.txt'
p8
sS'outFile'
p9
S'/storage/nf-core/exec/nextflow_workflow_tracer/work/85/e0c3e28f93e292bf18b1e3356c114f/strelka/workspace/pyflow.data/logs/pyflow_tasks_stdout_log.txt'
p10
sS'env'
p11
NsS'nCores'
p12
I1
sS'cwd'
p13
S''
p14
s.