(dp0
S'isShellCmd'
p1
I00
sS'cmd'
p2
(lp3
S'/usr/local/share/strelka-2.9.10-1/libexec/cat.py'
p4
aS'--output'
p5
aS'/storage/nf-core/exec/nextflow_workflow_tracer/work/32/79f84f0c86a78cec5c48e6c7e33e42/strelka/workspace/chromDepth.tsv.tmpdir/chromDepth.tsv.000.txt'
p6
aS'/storage/nf-core/exec/nextflow_workflow_tracer/work/32/79f84f0c86a78cec5c48e6c7e33e42/strelka/workspace/chromDepth.tsv.tmpdir/chromDepth.tsv.000.txt.tmpdir/chromDepth.tsv.000.txt_000_chr22'
p7
asS'errFile'
p8
S'/storage/nf-core/exec/nextflow_workflow_tracer/work/32/79f84f0c86a78cec5c48e6c7e33e42/strelka/workspace/pyflow.data/logs/pyflow_tasks_stderr_log.txt'
p9
sS'outFile'
p10
S'/storage/nf-core/exec/nextflow_workflow_tracer/work/32/79f84f0c86a78cec5c48e6c7e33e42/strelka/workspace/pyflow.data/logs/pyflow_tasks_stdout_log.txt'
p11
sS'env'
p12
NsS'nCores'
p13
I1
sS'cwd'
p14
S''
p15
s.