(dp0
S'isShellCmd'
p1
I00
sS'cmd'
p2
(lp3
S'/usr/local/share/strelka-2.9.10-1/libexec/GetChromDepth'
p4
aS'--ref'
p5
aS'/storage/nf-core/exec/nextflow_workflow_tracer/work/85/e0c3e28f93e292bf18b1e3356c114f/genome.fasta'
p6
aS'--align-file'
p7
aS'/storage/nf-core/exec/nextflow_workflow_tracer/work/85/e0c3e28f93e292bf18b1e3356c114f/test.recal.cram'
p8
aS'--output'
p9
aS'/storage/nf-core/exec/nextflow_workflow_tracer/work/85/e0c3e28f93e292bf18b1e3356c114f/strelka/workspace/chromDepth.tsv.tmpdir/chromDepth.tsv.000.txt.tmpdir/chromDepth.tsv.000.txt_000_chr22'
p10
aS'--chrom'
p11
aS'chr22'
p12
asS'errFile'
p13
S'/storage/nf-core/exec/nextflow_workflow_tracer/work/85/e0c3e28f93e292bf18b1e3356c114f/strelka/workspace/pyflow.data/logs/pyflow_tasks_stderr_log.txt'
p14
sS'outFile'
p15
S'/storage/nf-core/exec/nextflow_workflow_tracer/work/85/e0c3e28f93e292bf18b1e3356c114f/strelka/workspace/pyflow.data/logs/pyflow_tasks_stdout_log.txt'
p16
sS'env'
p17
NsS'nCores'
p18
I1
sS'cwd'
p19
S''
p20
s.