(dp0
S'isShellCmd'
p1
I00
sS'cmd'
p2
(lp3
S'rm'
p4
aS'-rf'
p5
aS'/storage/nf-core/exec/nextflow_workflow_tracer/work/06/7fd7fe930b443787e69b33fd62a834/strelka/workspace/genomeSegment.tmpdir'
p6
asS'errFile'
p7
S'/storage/nf-core/exec/nextflow_workflow_tracer/work/06/7fd7fe930b443787e69b33fd62a834/strelka/workspace/pyflow.data/logs/pyflow_tasks_stderr_log.txt'
p8
sS'outFile'
p9
S'/storage/nf-core/exec/nextflow_workflow_tracer/work/06/7fd7fe930b443787e69b33fd62a834/strelka/workspace/pyflow.data/logs/pyflow_tasks_stdout_log.txt'
p10
sS'env'
p11
NsS'nCores'
p12
I1
sS'cwd'
p13
S''
p14
s.