(dp0
S'isShellCmd'
p1
I01
sS'cmd'
p2
S'ln -s "genome.S1.vcf.gz" "genome.vcf.gz" && ln -s "genome.S1.vcf.gz.tbi" "genome.vcf.gz.tbi"'
p3
sS'errFile'
p4
S'/storage/nf-core/exec/nextflow_workflow_tracer/work/87/d598619b414bad37c164a84cbe1fc0/strelka/workspace/pyflow.data/logs/pyflow_tasks_stderr_log.txt'
p5
sS'outFile'
p6
S'/storage/nf-core/exec/nextflow_workflow_tracer/work/87/d598619b414bad37c164a84cbe1fc0/strelka/workspace/pyflow.data/logs/pyflow_tasks_stdout_log.txt'
p7
sS'env'
p8
NsS'nCores'
p9
I1
sS'cwd'
p10
S'/storage/nf-core/exec/nextflow_workflow_tracer/work/87/d598619b414bad37c164a84cbe1fc0/strelka/results/variants'
p11
s.