(dp0
S'isShellCmd'
p1
I00
sS'cmd'
p2
(lp3
S'/usr/local/share/strelka-2.9.10-1/libexec/tabix'
p4
aS'-p'
p5
aS'vcf'
p6
aS'/storage/nf-core/exec/nextflow_workflow_tracer/work/85/e0c3e28f93e292bf18b1e3356c114f/strelka/results/variants/genome.S1.vcf.gz'
p7
asS'errFile'
p8
S'/storage/nf-core/exec/nextflow_workflow_tracer/work/85/e0c3e28f93e292bf18b1e3356c114f/strelka/workspace/pyflow.data/logs/pyflow_tasks_stderr_log.txt'
p9
sS'outFile'
p10
S'/storage/nf-core/exec/nextflow_workflow_tracer/work/85/e0c3e28f93e292bf18b1e3356c114f/strelka/workspace/pyflow.data/logs/pyflow_tasks_stdout_log.txt'
p11
sS'env'
p12
NsS'nCores'
p13
I1
sS'cwd'
p14
S''
p15
s.