(dp0
S'isShellCmd'
p1
I00
sS'cmd'
p2
(lp3
S'/usr/local/share/strelka-2.9.10-1/libexec/MergeRunStats'
p4
aS'--stats-file'
p5
aS'/storage/nf-core/exec/nextflow_workflow_tracer/work/06/7fd7fe930b443787e69b33fd62a834/strelka/workspace/genomeSegment.tmpdir/runStats.chromId_000_chr22_0000.xml'
p6
aS'--output-file'
p7
aS'/storage/nf-core/exec/nextflow_workflow_tracer/work/06/7fd7fe930b443787e69b33fd62a834/strelka/results/stats/runStats.xml'
p8
aS'--report-file'
p9
aS'/storage/nf-core/exec/nextflow_workflow_tracer/work/06/7fd7fe930b443787e69b33fd62a834/strelka/results/stats/runStats.tsv'
p10
asS'errFile'
p11
S'/storage/nf-core/exec/nextflow_workflow_tracer/work/06/7fd7fe930b443787e69b33fd62a834/strelka/workspace/pyflow.data/logs/pyflow_tasks_stderr_log.txt'
p12
sS'outFile'
p13
S'/storage/nf-core/exec/nextflow_workflow_tracer/work/06/7fd7fe930b443787e69b33fd62a834/strelka/workspace/pyflow.data/logs/pyflow_tasks_stdout_log.txt'
p14
sS'env'
p15
NsS'nCores'
p16
I1
sS'cwd'
p17
S''
p18
s.